; Function Attrs: mustprogress nofree norecurse nosync nounwind willreturn memory(read, inaccessiblemem: none) uwtable
define dso_local range(i32 0, 2) i32 @onig_callout_tag_is_exist_at_callout_num(ptr noundef readonly captures(none) %0, i32 noundef %1) local_unnamed_addr #13 {
  %3 = getelementptr inbounds nuw i8, ptr %0, i64 448
  %4 = load ptr, ptr %3, align 8, !tbaa !89
  %5 = icmp eq ptr %4, null
  br i1 %5, label %19, label %6

6:                                                ; preds = %2
  %7 = getelementptr inbounds nuw i8, ptr %4, i64 32
  %8 = load ptr, ptr %7, align 8, !tbaa !92
  %9 = icmp eq ptr %8, null
  br i1 %9, label %19, label %10

10:                                               ; preds = %6
  %11 = getelementptr inbounds nuw i8, ptr %4, i64 24
  %12 = load i32, ptr %11, align 8, !tbaa !90
  %13 = icmp sgt i32 %1, %12
  br i1 %13, label %19, label %14

14:                                               ; preds = %10
  %15 = sext i32 %1 to i64
  %16 = getelementptr inbounds %struct.CalloutListEntry, ptr %8, i64 %15
  %17 = load i32, ptr %16, align 8, !tbaa !99
  %18 = and i32 %17, 1
  br label %19

19:                                               ; preds = %10, %2, %6, %14
  %.0 = phi i32 [ %18, %14 ], [ 0, %6 ], [ 0, %2 ], [ 0, %10 ]
  ret i32 %.0
}